; Function Attrs: mustprogress uwtable
define void @_ZN6google8protobuf6Method12InternalSwapEPS1_(ptr noundef nonnull align 8 dereferenceable(80) %this, ptr noalias noundef %other) local_unnamed_addr #3 align 2 {
entry:
  %_internal_metadata_.i = getelementptr inbounds i8, ptr %this, i64 8
  %0 = load i64, ptr %_internal_metadata_.i, align 8
  %_internal_metadata_3 = getelementptr inbounds i8, ptr %other, i64 8
  %1 = load i64, ptr %_internal_metadata_3, align 8
  store i64 %1, ptr %_internal_metadata_.i, align 8
  store i64 %0, ptr %_internal_metadata_3, align 8
  %2 = getelementptr inbounds i8, ptr %this, i64 16
  %3 = getelementptr inbounds i8, ptr %other, i64 16
  tail call void @_ZN6google8protobuf8internal7memswapILm16EEEvPcS3_(ptr noundef nonnull %2, ptr noundef nonnull %3)
  %name_ = getelementptr inbounds i8, ptr %this, i64 40
  %name_5 = getelementptr inbounds i8, ptr %other, i64 40
  %4 = load <2 x ptr>, ptr %name_5, align 8
  %5 = load <2 x i64>, ptr %name_, align 8
  store <2 x i64> %5, ptr %name_5, align 8
  store <2 x ptr> %4, ptr %name_, align 8
  %response_type_url_ = getelementptr inbounds i8, ptr %this, i64 56
  %response_type_url_7 = getelementptr inbounds i8, ptr %other, i64 56
  %__tmp.sroa.0.0.copyload.i9 = load ptr, ptr %response_type_url_7, align 8
  %6 = load i64, ptr %response_type_url_, align 8
  store i64 %6, ptr %response_type_url_7, align 8
  store ptr %__tmp.sroa.0.0.copyload.i9, ptr %response_type_url_, align 8
  %request_streaming_ = getelementptr inbounds i8, ptr %this, i64 64
  %request_streaming_8 = getelementptr i8, ptr %other, i64 64
  tail call void @llvm.experimental.noalias.scope.decl(metadata !19)
  tail call void @llvm.experimental.noalias.scope.decl(metadata !22)
  br label %for.body.i.i

for.body.i.i:                                     ; preds = %for.body.i.i, %entry
  %__first2.addr.07.i.i = phi ptr [ %incdec.ptr1.i.i, %for.body.i.i ], [ %request_streaming_8, %entry ]
  %__first1.addr.06.i.idx.i = phi i64 [ %__first1.addr.06.i.add.i, %for.body.i.i ], [ 0, %entry ]
  %__first1.addr.06.i.ptr.i = getelementptr inbounds i8, ptr %request_streaming_, i64 %__first1.addr.06.i.idx.i
  %7 = load i8, ptr %__first1.addr.06.i.ptr.i, align 1, !alias.scope !19, !noalias !22
  %8 = load i8, ptr %__first2.addr.07.i.i, align 1, !alias.scope !22, !noalias !19
  store i8 %8, ptr %__first1.addr.06.i.ptr.i, align 1, !alias.scope !19, !noalias !22
  store i8 %7, ptr %__first2.addr.07.i.i, align 1, !alias.scope !22, !noalias !19
  %__first1.addr.06.i.add.i = add nuw nsw i64 %__first1.addr.06.i.idx.i, 1
  %incdec.ptr1.i.i = getelementptr inbounds i8, ptr %__first2.addr.07.i.i, i64 1
  %cmp.not.i.i = icmp eq i64 %__first1.addr.06.i.add.i, 8
  br i1 %cmp.not.i.i, label %_ZN6google8protobuf8internal7memswapILm8EEEvPcS3_.exit, label %for.body.i.i, !llvm.loop !17

_ZN6google8protobuf8internal7memswapILm8EEEvPcS3_.exit: ; preds = %for.body.i.i
  ret void
}